target datalayout = "e-m:e-p270:32:32-p271:32:32-p272:64:64-i64:64-i128:128-f80:128-n8:16:32:64-S128"
target triple = "x86_64-pc-linux-gnu"

%struct.timeval = type { i64, i64 }
%struct.evhttp = type { %struct.anon.9, %struct.boundq, %struct.httpcbq, %struct.evconq, %struct.evwsq, i32, i32, %struct.vhostsq, %struct.aliasq, ptr, %struct.timeval, %struct.timeval, i64, i64, i32, ptr, i32, ptr, ptr, ptr, ptr, ptr, ptr, ptr, ptr, ptr, ptr }
%struct.anon.9 = type { ptr, ptr }
%struct.boundq = type { ptr, ptr }
%struct.httpcbq = type { ptr, ptr }
%struct.evconq = type { ptr, ptr }
%struct.evwsq = type { ptr, ptr }
%struct.vhostsq = type { ptr, ptr }
%struct.aliasq = type { ptr, ptr }
%struct.evhttp_bound_socket = type { %struct.anon.11, ptr, ptr, ptr, ptr }
%struct.anon.11 = type { ptr, ptr }

; Function Attrs: nounwind uwtable
define ptr @evhttp_bind_listener(ptr noundef %0, ptr noundef %1) #0 {
  %3 = alloca ptr, align 8
  %4 = alloca ptr, align 8
  %5 = alloca ptr, align 8
  %6 = alloca ptr, align 8
  %7 = alloca i32, align 4
  store ptr %0, ptr %4, align 8
  store ptr %1, ptr %5, align 8
  call void @llvm.lifetime.start.p0(i64 8, ptr %6) #11
  %8 = call ptr @event_mm_malloc_(i64 noundef 48)
  store ptr %8, ptr %6, align 8
  %9 = load ptr, ptr %6, align 8
  %10 = icmp eq ptr %9, null
  br i1 %10, label %11, label %12

11:                                               ; preds = %2
  store ptr null, ptr %3, align 8
  store i32 1, ptr %7, align 4
  br label %48

12:                                               ; preds = %2
  %13 = load ptr, ptr %5, align 8
  %14 = load ptr, ptr %6, align 8
  %15 = getelementptr inbounds nuw %struct.evhttp_bound_socket, ptr %14, i32 0, i32 4
  store ptr %13, ptr %15, align 8
  %16 = load ptr, ptr %6, align 8
  %17 = getelementptr inbounds nuw %struct.evhttp_bound_socket, ptr %16, i32 0, i32 2
  store ptr null, ptr %17, align 8
  %18 = load ptr, ptr %4, align 8
  %19 = load ptr, ptr %6, align 8
  %20 = getelementptr inbounds nuw %struct.evhttp_bound_socket, ptr %19, i32 0, i32 1
  store ptr %18, ptr %20, align 8
  br label %21

21:                                               ; preds = %12
  %22 = load ptr, ptr %6, align 8
  %23 = getelementptr inbounds nuw %struct.evhttp_bound_socket, ptr %22, i32 0, i32 0
  %24 = getelementptr inbounds nuw %struct.anon.11, ptr %23, i32 0, i32 0
  store ptr null, ptr %24, align 8
  %25 = load ptr, ptr %4, align 8
  %26 = getelementptr inbounds nuw %struct.evhttp, ptr %25, i32 0, i32 1
  %27 = getelementptr inbounds nuw %struct.boundq, ptr %26, i32 0, i32 1
  %28 = load ptr, ptr %27, align 8
  %29 = load ptr, ptr %6, align 8
  %30 = getelementptr inbounds nuw %struct.evhttp_bound_socket, ptr %29, i32 0, i32 0
  %31 = getelementptr inbounds nuw %struct.anon.11, ptr %30, i32 0, i32 1
  store ptr %28, ptr %31, align 8
  %32 = load ptr, ptr %6, align 8
  %33 = load ptr, ptr %4, align 8
  %34 = getelementptr inbounds nuw %struct.evhttp, ptr %33, i32 0, i32 1
  %35 = getelementptr inbounds nuw %struct.boundq, ptr %34, i32 0, i32 1
  %36 = load ptr, ptr %35, align 8
  store ptr %32, ptr %36, align 8
  %37 = load ptr, ptr %6, align 8
  %38 = getelementptr inbounds nuw %struct.evhttp_bound_socket, ptr %37, i32 0, i32 0
  %39 = getelementptr inbounds nuw %struct.anon.11, ptr %38, i32 0, i32 0
  %40 = load ptr, ptr %4, align 8
  %41 = getelementptr inbounds nuw %struct.evhttp, ptr %40, i32 0, i32 1
  %42 = getelementptr inbounds nuw %struct.boundq, ptr %41, i32 0, i32 1
  store ptr %39, ptr %42, align 8
  br label %43

43:                                               ; preds = %21
  br label %44

44:                                               ; preds = %43
  %45 = load ptr, ptr %5, align 8
  %46 = load ptr, ptr %6, align 8
  call void @evconnlistener_set_cb(ptr noundef %45, ptr noundef @accept_socket_cb, ptr noundef %46)
  %47 = load ptr, ptr %6, align 8
  store ptr %47, ptr %3, align 8
  store i32 1, ptr %7, align 4
  br label %48

48:                                               ; preds = %44, %11
  call void @llvm.lifetime.end.p0(i64 8, ptr %6) #11
  %49 = load ptr, ptr %3, align 8
  ret ptr %49
}