; Function Attrs: nounwind uwtable
define ptr @evhttp_bind_listener(ptr noundef %0, ptr noundef %1) local_unnamed_addr #0 {
  %3 = tail call ptr @event_mm_malloc_(i64 noundef 48) #18
  %4 = icmp eq ptr %3, null
  br i1 %4, label %12, label %5

5:                                                ; preds = %2
  %6 = getelementptr inbounds nuw i8, ptr %3, i64 40
  store ptr %1, ptr %6, align 8
  %7 = getelementptr inbounds nuw i8, ptr %3, i64 24
  store ptr null, ptr %7, align 8
  %8 = getelementptr inbounds nuw i8, ptr %3, i64 16
  store ptr %0, ptr %8, align 8
  store ptr null, ptr %3, align 8
  %9 = getelementptr inbounds nuw i8, ptr %0, i64 24
  %10 = load ptr, ptr %9, align 8
  %11 = getelementptr inbounds nuw i8, ptr %3, i64 8
  store ptr %10, ptr %11, align 8
  store ptr %3, ptr %10, align 8
  store ptr %3, ptr %9, align 8
  tail call void @evconnlistener_set_cb(ptr noundef %1, ptr noundef nonnull @accept_socket_cb, ptr noundef nonnull %3) #18
  br label %12

12:                                               ; preds = %2, %5
  ret ptr %3
}